; Function Attrs: mustprogress nounwind uwtable
define internal fastcc void @_ZN5clang6format12_GLOBAL__N_110pushTokensISt20_List_const_iteratorINS0_17UnwrappedLineNodeEEEEvT_S6_RN4llvm15SmallVectorImplIPNS0_11FormatTokenEEE(ptr %0, ptr readnone %1, ptr noundef nonnull align 8 dereferenceable(16) %2) unnamed_addr #0 {
  %.not1619 = icmp eq ptr %0, %1
  br i1 %.not1619, label %._crit_edge23, label %.lr.ph22

.lr.ph22:                                         ; preds = %3
  %4 = getelementptr inbounds i8, ptr %2, i64 16
  br label %5

5:                                                ; preds = %.lr.ph22, %._crit_edge
  %.sroa.0.020 = phi ptr [ %0, %.lr.ph22 ], [ %24, %._crit_edge ]
  %6 = getelementptr inbounds nuw i8, ptr %.sroa.0.020, i64 16
  %7 = load ptr, ptr %6, align 8
  %8 = tail call noundef i64 @_ZNK4llvm15SmallVectorBaseIjE4sizeEv(ptr noundef nonnull align 8 dereferenceable(16) %2) #19
  %9 = add i64 %8, 1
  %10 = tail call noundef i64 @_ZNK4llvm15SmallVectorBaseIjE8capacityEv(ptr noundef nonnull align 8 dereferenceable(16) %2) #19
  %.not.i.i.i = icmp ugt i64 %9, %10
  br i1 %.not.i.i.i, label %11, label %_ZN4llvm23SmallVectorTemplateBaseIPN5clang6format11FormatTokenELb1EE9push_backES4_.exit

11:                                               ; preds = %5
  tail call void @_ZN4llvm15SmallVectorBaseIjE8grow_podEPvmm(ptr noundef nonnull align 8 dereferenceable(16) %2, ptr noundef nonnull %4, i64 noundef %9, i64 noundef 8) #19
  br label %_ZN4llvm23SmallVectorTemplateBaseIPN5clang6format11FormatTokenELb1EE9push_backES4_.exit

_ZN4llvm23SmallVectorTemplateBaseIPN5clang6format11FormatTokenELb1EE9push_backES4_.exit: ; preds = %5, %11
  %12 = load ptr, ptr %2, align 8
  %13 = tail call noundef i64 @_ZNK4llvm15SmallVectorBaseIjE4sizeEv(ptr noundef nonnull align 8 dereferenceable(16) %2) #19
  %14 = getelementptr inbounds ptr, ptr %12, i64 %13
  %15 = ptrtoint ptr %7 to i64
  store i64 %15, ptr %14, align 1
  %16 = tail call noundef i64 @_ZNK4llvm15SmallVectorBaseIjE4sizeEv(ptr noundef nonnull align 8 dereferenceable(16) %2) #19
  %17 = add i64 %16, 1
  tail call void @_ZN4llvm15SmallVectorBaseIjE8set_sizeEm(ptr noundef nonnull align 8 dereferenceable(16) %2, i64 noundef %17) #19
  %18 = getelementptr inbounds i8, ptr %.sroa.0.020, i64 24
  %19 = load ptr, ptr %18, align 8
  %20 = tail call noundef i64 @_ZNK4llvm15SmallVectorBaseIjE4sizeEv(ptr noundef nonnull align 8 dereferenceable(16) %18) #19
  %21 = getelementptr inbounds %"struct.clang::format::UnwrappedLine", ptr %19, i64 %20
  %.not17 = icmp eq i64 %20, 0
  br i1 %.not17, label %._crit_edge, label %.lr.ph

.lr.ph:                                           ; preds = %_ZN4llvm23SmallVectorTemplateBaseIPN5clang6format11FormatTokenELb1EE9push_backES4_.exit, %.lr.ph
  %.018 = phi ptr [ %23, %.lr.ph ], [ %19, %_ZN4llvm23SmallVectorTemplateBaseIPN5clang6format11FormatTokenELb1EE9push_backES4_.exit ]
  %22 = load ptr, ptr %.018, align 8
  tail call fastcc void @_ZN5clang6format12_GLOBAL__N_110pushTokensISt20_List_const_iteratorINS0_17UnwrappedLineNodeEEEEvT_S6_RN4llvm15SmallVectorImplIPNS0_11FormatTokenEEE(ptr %22, ptr nonnull %.018, ptr noundef nonnull align 8 dereferenceable(16) %2)
  %23 = getelementptr inbounds i8, ptr %.018, i64 72
  %.not = icmp eq ptr %23, %21
  br i1 %.not, label %._crit_edge, label %.lr.ph

._crit_edge:                                      ; preds = %.lr.ph, %_ZN4llvm23SmallVectorTemplateBaseIPN5clang6format11FormatTokenELb1EE9push_backES4_.exit
  %24 = load ptr, ptr %.sroa.0.020, align 8
  %.not16 = icmp eq ptr %24, %1
  br i1 %.not16, label %._crit_edge23, label %5, !llvm.loop !182

._crit_edge23:                                    ; preds = %._crit_edge, %3
  ret void
}